target datalayout = "e-m:e-p270:32:32-p271:32:32-p272:64:64-i64:64-i128:128-f80:128-n8:16:32:64-S128"
target triple = "x86_64-pc-linux-gnu"

%"class.google::protobuf::io::CodedInputStream" = type { ptr, ptr, ptr, i32, i32, i32, i8, i8, i32, i32, i32, i32, i32, ptr, ptr }
%"class.google::protobuf::internal::LogMessage" = type { i32, ptr, i32, %"class.std::__cxx11::basic_string" }
%"class.std::__cxx11::basic_string" = type { %"struct.std::__cxx11::basic_string<char>::_Alloc_hider", i64, %union.anon }
%"struct.std::__cxx11::basic_string<char>::_Alloc_hider" = type { ptr }
%union.anon = type { i64, [8 x i8] }
%"class.google::protobuf::internal::LogFinisher" = type { i8 }
%"struct.std::pair.0" = type <{ ptr, i8, [7 x i8] }>

@.str = private unnamed_addr constant [42 x i8] c"third_party/protobuf-lite/coded_stream.cc\00", align 1
@.str.4 = private unnamed_addr constant [34 x i8] c"CHECK failed: z.first != __null: \00", align 1

; Function Attrs: mustprogress nounwind uwtable
define available_externally noundef ptr @_ZNKSt7__cxx1112basic_stringIcSt11char_traitsIcESaIcEE7_M_dataEv(ptr noundef nonnull align 8 dereferenceable(32) %0) #4 align 2 {
  %2 = alloca ptr, align 8
  store ptr %0, ptr %2, align 8, !tbaa !44
  %3 = load ptr, ptr %2, align 8
  %4 = getelementptr inbounds nuw %"class.std::__cxx11::basic_string", ptr %3, i32 0, i32 0
  %5 = getelementptr inbounds nuw %"struct.std::__cxx11::basic_string<char>::_Alloc_hider", ptr %4, i32 0, i32 0
  %6 = load ptr, ptr %5, align 8, !tbaa !118
  ret ptr %6
}

; Function Attrs: mustprogress nounwind uwtable
define linkonce_odr void @_ZNSt4pairIPcbEC2IRS0_bTnNSt9enable_ifIXaaclsr5_PCCPE22_MoveConstructiblePairIT_T0_EEclsr5_PCCPE30_ImplicitlyMoveConvertiblePairIS5_S6_EEEbE4typeELb1EEEOS5_OS6_(ptr noundef nonnull align 8 dereferenceable(9) %0, ptr noundef nonnull align 8 dereferenceable(8) %1, ptr noundef nonnull align 1 dereferenceable(1) %2) unnamed_addr #4 comdat align 2 {
  %4 = alloca ptr, align 8
  %5 = alloca ptr, align 8
  %6 = alloca ptr, align 8
  store ptr %0, ptr %4, align 8, !tbaa !119
  store ptr %1, ptr %5, align 8, !tbaa !92
  store ptr %2, ptr %6, align 8, !tbaa !68
  %7 = load ptr, ptr %4, align 8
  %8 = getelementptr inbounds nuw %"struct.std::pair.0", ptr %7, i32 0, i32 0
  %9 = load ptr, ptr %5, align 8, !tbaa !92
  %10 = load ptr, ptr %9, align 8, !tbaa !50
  store ptr %10, ptr %8, align 8, !tbaa !48
  %11 = getelementptr inbounds nuw %"struct.std::pair.0", ptr %7, i32 0, i32 1
  %12 = load ptr, ptr %6, align 8, !tbaa !68
  %13 = load i8, ptr %12, align 1, !tbaa !32, !range !36, !noundef !37
  %14 = trunc i8 %13 to i1
  %15 = zext i1 %14 to i8
  store i8 %15, ptr %11, align 8, !tbaa !46
  ret void
}

; Function Attrs: mustprogress uwtable
define available_externally noundef nonnull align 1 dereferenceable(1) ptr @_ZNSt7__cxx1112basic_stringIcSt11char_traitsIcESaIcEEixEm(ptr noundef nonnull align 8 dereferenceable(32) %0, i64 noundef %1) #5 align 2 {
  %3 = alloca ptr, align 8
  %4 = alloca i64, align 8
  store ptr %0, ptr %3, align 8, !tbaa !44
  store i64 %1, ptr %4, align 8, !tbaa !30
  %5 = load ptr, ptr %3, align 8
  br label %6

6:                                                ; preds = %2
  br label %7

7:                                                ; preds = %6
  %8 = call noundef ptr @_ZNKSt7__cxx1112basic_stringIcSt11char_traitsIcESaIcEE7_M_dataEv(ptr noundef nonnull align 8 dereferenceable(32) %5)
  %9 = load i64, ptr %4, align 8, !tbaa !30
  %10 = getelementptr inbounds nuw i8, ptr %8, i64 %9
  ret ptr %10
}

; Function Attrs: mustprogress uwtable
define linkonce_odr { ptr, i8 } @_ZSt9make_pairIRPcbESt4pairINSt25__strip_reference_wrapperINSt5decayIT_E4typeEE6__typeENS3_INS4_IT0_E4typeEE6__typeEEOS5_OSA_(ptr noundef nonnull align 8 dereferenceable(8) %0, ptr noundef nonnull align 1 dereferenceable(1) %1) #5 comdat {
  %3 = alloca %"struct.std::pair.0", align 8
  %4 = alloca ptr, align 8
  %5 = alloca ptr, align 8
  store ptr %0, ptr %4, align 8, !tbaa !92
  store ptr %1, ptr %5, align 8, !tbaa !68
  %6 = load ptr, ptr %4, align 8, !tbaa !92
  %7 = load ptr, ptr %5, align 8, !tbaa !68
  call void @_ZNSt4pairIPcbEC2IRS0_bTnNSt9enable_ifIXaaclsr5_PCCPE22_MoveConstructiblePairIT_T0_EEclsr5_PCCPE30_ImplicitlyMoveConvertiblePairIS5_S6_EEEbE4typeELb1EEEOS5_OS6_(ptr noundef nonnull align 8 dereferenceable(9) %3, ptr noundef nonnull align 8 dereferenceable(8) %6, ptr noundef nonnull align 1 dereferenceable(1) %7)
  %8 = load { ptr, i8 }, ptr %3, align 8
  ret { ptr, i8 } %8
}

; Function Attrs: inlinehint mustprogress uwtable
define linkonce_odr noundef ptr @_ZN6google8protobuf2io19mutable_string_dataEPNSt7__cxx1112basic_stringIcSt11char_traitsIcESaIcEEE(ptr noundef %0) #10 comdat {
  %2 = alloca ptr, align 8
  store ptr %0, ptr %2, align 8, !tbaa !44
  %3 = load ptr, ptr %2, align 8, !tbaa !44
  %4 = call noundef nonnull align 1 dereferenceable(1) ptr @_ZNSt7__cxx1112basic_stringIcSt11char_traitsIcESaIcEEixEm(ptr noundef nonnull align 8 dereferenceable(32) %3, i64 noundef 0)
  ret ptr %4
}

; Function Attrs: mustprogress uwtable
define available_externally void @_ZNSt7__cxx1112basic_stringIcSt11char_traitsIcESaIcEE6resizeEm(ptr noundef nonnull align 8 dereferenceable(32) %0, i64 noundef %1) #5 align 2 {
  %3 = alloca ptr, align 8
  %4 = alloca i64, align 8
  store ptr %0, ptr %3, align 8, !tbaa !44
  store i64 %1, ptr %4, align 8, !tbaa !30
  %5 = load ptr, ptr %3, align 8
  %6 = load i64, ptr %4, align 8, !tbaa !30
  call void @_ZNSt7__cxx1112basic_stringIcSt11char_traitsIcESaIcEE6resizeEmc(ptr noundef nonnull align 8 dereferenceable(32) %5, i64 noundef %6, i8 noundef signext 0)
  ret void
}

; Function Attrs: inlinehint mustprogress nounwind uwtable
define linkonce_odr void @_ZN6google8protobuf2io16CodedInputStream7AdvanceEi(ptr noundef nonnull align 8 dereferenceable(80) %0, i32 noundef %1) #8 comdat align 2 {
  %3 = alloca ptr, align 8
  %4 = alloca i32, align 4
  store ptr %0, ptr %3, align 8, !tbaa !3
  store i32 %1, ptr %4, align 4, !tbaa !18
  %5 = load ptr, ptr %3, align 8
  %6 = load i32, ptr %4, align 4, !tbaa !18
  %7 = getelementptr inbounds nuw %"class.google::protobuf::io::CodedInputStream", ptr %5, i32 0, i32 0
  %8 = load ptr, ptr %7, align 8, !tbaa !22
  %9 = sext i32 %6 to i64
  %10 = getelementptr inbounds i8, ptr %8, i64 %9
  store ptr %10, ptr %7, align 8, !tbaa !22
  ret void
}

; Function Attrs: inlinehint mustprogress uwtable
define linkonce_odr { ptr, i8 } @_ZN6google8protobuf2io14as_string_dataEPNSt7__cxx1112basic_stringIcSt11char_traitsIcESaIcEEE(ptr noundef %0) #10 comdat {
  %2 = alloca %"struct.std::pair.0", align 8
  %3 = alloca ptr, align 8
  %4 = alloca ptr, align 8
  %5 = alloca i8, align 1
  %6 = alloca { ptr, i8 }, align 8
  store ptr %0, ptr %3, align 8, !tbaa !44
  call void @llvm.lifetime.start.p0(i64 8, ptr %4) #3
  %7 = load ptr, ptr %3, align 8, !tbaa !44
  %8 = call noundef ptr @_ZN6google8protobuf2io19mutable_string_dataEPNSt7__cxx1112basic_stringIcSt11char_traitsIcESaIcEEE(ptr noundef %7)
  store ptr %8, ptr %4, align 8, !tbaa !50
  call void @llvm.lifetime.start.p0(i64 1, ptr %5) #3
  store i8 1, ptr %5, align 1, !tbaa !32
  %9 = call { ptr, i8 } @_ZSt9make_pairIRPcbESt4pairINSt25__strip_reference_wrapperINSt5decayIT_E4typeEE6__typeENS3_INS4_IT0_E4typeEE6__typeEEOS5_OSA_(ptr noundef nonnull align 8 dereferenceable(8) %4, ptr noundef nonnull align 1 dereferenceable(1) %5)
  store { ptr, i8 } %9, ptr %6, align 8
  call void @llvm.memcpy.p0.p0.i64(ptr align 8 %2, ptr align 8 %6, i64 9, i1 false)
  call void @llvm.lifetime.end.p0(i64 1, ptr %5) #3
  call void @llvm.lifetime.end.p0(i64 8, ptr %4) #3
  %10 = load { ptr, i8 }, ptr %2, align 8
  ret { ptr, i8 } %10
}

; Function Attrs: inlinehint mustprogress uwtable
define linkonce_odr void @_ZN6google8protobuf28STLStringResizeUninitializedEPNSt7__cxx1112basic_stringIcSt11char_traitsIcESaIcEEEm(ptr noundef %0, i64 noundef %1) #10 comdat {
  %3 = alloca ptr, align 8
  %4 = alloca i64, align 8
  store ptr %0, ptr %3, align 8, !tbaa !44
  store i64 %1, ptr %4, align 8, !tbaa !30
  %5 = load ptr, ptr %3, align 8, !tbaa !44
  %6 = load i64, ptr %4, align 8, !tbaa !30
  call void @_ZNSt7__cxx1112basic_stringIcSt11char_traitsIcESaIcEE6resizeEm(ptr noundef nonnull align 8 dereferenceable(32) %5, i64 noundef %6)
  ret void
}

; Function Attrs: inlinehint mustprogress nounwind uwtable
define linkonce_odr noundef i32 @_ZNK6google8protobuf2io16CodedInputStream10BufferSizeEv(ptr noundef nonnull align 8 dereferenceable(80) %0) #8 comdat align 2 {
  %2 = alloca ptr, align 8
  store ptr %0, ptr %2, align 8, !tbaa !3
  %3 = load ptr, ptr %2, align 8
  %4 = getelementptr inbounds nuw %"class.google::protobuf::io::CodedInputStream", ptr %3, i32 0, i32 1
  %5 = load ptr, ptr %4, align 8, !tbaa !23
  %6 = getelementptr inbounds nuw %"class.google::protobuf::io::CodedInputStream", ptr %3, i32 0, i32 0
  %7 = load ptr, ptr %6, align 8, !tbaa !22
  %8 = ptrtoint ptr %5 to i64
  %9 = ptrtoint ptr %7 to i64
  %10 = sub i64 %8, %9
  %11 = trunc i64 %10 to i32
  ret i32 %11
}

; Function Attrs: mustprogress uwtable
define noundef zeroext i1 @_ZN6google8protobuf2io16CodedInputStream10ReadStringEPNSt7__cxx1112basic_stringIcSt11char_traitsIcESaIcEEEi(ptr noundef nonnull align 8 dereferenceable(80) %0, ptr noundef %1, i32 noundef %2) #5 align 2 personality ptr @__gxx_personality_v0 {
  %4 = alloca i1, align 1
  %5 = alloca ptr, align 8
  %6 = alloca ptr, align 8
  %7 = alloca i32, align 4
  %8 = alloca %"struct.std::pair.0", align 8
  %9 = alloca { ptr, i8 }, align 8
  %10 = alloca %"class.google::protobuf::internal::LogMessage", align 8
  %11 = alloca i1, align 1
  %12 = alloca i1, align 1
  %13 = alloca ptr, align 8
  %14 = alloca i32, align 4
  %15 = alloca %"class.google::protobuf::internal::LogFinisher", align 1
  store ptr %0, ptr %5, align 8, !tbaa !3
  store ptr %1, ptr %6, align 8, !tbaa !44
  store i32 %2, ptr %7, align 4, !tbaa !18
  %16 = load ptr, ptr %5, align 8
  %17 = load i32, ptr %7, align 4, !tbaa !18
  %18 = icmp slt i32 %17, 0
  br i1 %18, label %19, label %20

19:                                               ; preds = %3
  store i1 false, ptr %4, align 1
  br label %79

20:                                               ; preds = %3
  %21 = call noundef i32 @_ZNK6google8protobuf2io16CodedInputStream10BufferSizeEv(ptr noundef nonnull align 8 dereferenceable(80) %16)
  %22 = load i32, ptr %7, align 4, !tbaa !18
  %23 = icmp sge i32 %21, %22
  br i1 %23, label %24, label %75

24:                                               ; preds = %20
  %25 = load ptr, ptr %6, align 8, !tbaa !44
  %26 = load i32, ptr %7, align 4, !tbaa !18
  %27 = sext i32 %26 to i64
  call void @_ZN6google8protobuf28STLStringResizeUninitializedEPNSt7__cxx1112basic_stringIcSt11char_traitsIcESaIcEEEm(ptr noundef %25, i64 noundef %27)
  call void @llvm.lifetime.start.p0(i64 16, ptr %8) #3
  %28 = load ptr, ptr %6, align 8, !tbaa !44
  %29 = call { ptr, i8 } @_ZN6google8protobuf2io14as_string_dataEPNSt7__cxx1112basic_stringIcSt11char_traitsIcESaIcEEE(ptr noundef %28)
  store { ptr, i8 } %29, ptr %9, align 8
  call void @llvm.memcpy.p0.p0.i64(ptr align 8 %8, ptr align 8 %9, i64 9, i1 false)
  %30 = getelementptr inbounds nuw %"struct.std::pair.0", ptr %8, i32 0, i32 1
  %31 = load i8, ptr %30, align 8, !tbaa !46, !range !36, !noundef !37
  %32 = trunc i8 %31 to i1
  br i1 %32, label %33, label %74

33:                                               ; preds = %24
  br label %34

34:                                               ; preds = %50, %33
  br i1 false, label %35, label %66

35:                                               ; preds = %34
  %36 = getelementptr inbounds nuw %"struct.std::pair.0", ptr %8, i32 0, i32 0
  %37 = load ptr, ptr %36, align 8, !tbaa !48
  %38 = icmp ne ptr %37, null
  store i1 false, ptr %11, align 1
  store i1 false, ptr %12, align 1
  call void @llvm.lifetime.start.p0(i64 1, ptr %15) #3
  br i1 %38, label %39, label %40

39:                                               ; preds = %35
  br label %44

40:                                               ; preds = %35
  call void @llvm.lifetime.start.p0(i64 56, ptr %10) #3
  store i1 true, ptr %11, align 1
  call void @_ZN6google8protobuf8internal10LogMessageC1ENS0_8LogLevelEPKci(ptr noundef nonnull align 8 dereferenceable(56) %10, i32 noundef 3, ptr noundef @.str, i32 noundef 267)
  store i1 true, ptr %12, align 1
  %41 = invoke noundef nonnull align 8 dereferenceable(56) ptr @_ZN6google8protobuf8internal10LogMessagelsEPKc(ptr noundef nonnull align 8 dereferenceable(56) %10, ptr noundef @.str.4)
          to label %42 unwind label %51

42:                                               ; preds = %40
  invoke void @_ZN6google8protobuf8internal11LogFinisheraSERNS1_10LogMessageE(ptr noundef nonnull align 1 dereferenceable(1) %15, ptr noundef nonnull align 8 dereferenceable(56) %41)
          to label %43 unwind label %55

43:                                               ; preds = %42
  br label %44

44:                                               ; preds = %43, %39
  call void @llvm.lifetime.end.p0(i64 1, ptr %15) #3
  %45 = load i1, ptr %12, align 1
  br i1 %45, label %46, label %47

46:                                               ; preds = %44
  call void @_ZN6google8protobuf8internal10LogMessageD1Ev(ptr noundef nonnull align 8 dereferenceable(56) %10) #3
  br label %47

47:                                               ; preds = %46, %44
  %48 = load i1, ptr %11, align 1
  br i1 %48, label %49, label %50

49:                                               ; preds = %47
  call void @llvm.lifetime.end.p0(i64 56, ptr %10) #3
  br label %50

50:                                               ; preds = %49, %47
  br label %34, !llvm.loop !49

51:                                               ; preds = %40
  %52 = landingpad { ptr, i32 }
          cleanup
  %53 = extractvalue { ptr, i32 } %52, 0
  store ptr %53, ptr %13, align 8
  %54 = extractvalue { ptr, i32 } %52, 1
  store i32 %54, ptr %14, align 4
  br label %59

55:                                               ; preds = %42
  %56 = landingpad { ptr, i32 }
          cleanup
  %57 = extractvalue { ptr, i32 } %56, 0
  store ptr %57, ptr %13, align 8
  %58 = extractvalue { ptr, i32 } %56, 1
  store i32 %58, ptr %14, align 4
  call void @llvm.lifetime.end.p0(i64 1, ptr %15) #3
  br label %59

59:                                               ; preds = %55, %51
  %60 = load i1, ptr %12, align 1
  br i1 %60, label %61, label %62

61:                                               ; preds = %59
  call void @_ZN6google8protobuf8internal10LogMessageD1Ev(ptr noundef nonnull align 8 dereferenceable(56) %10) #3
  br label %62

62:                                               ; preds = %61, %59
  %63 = load i1, ptr %11, align 1
  br i1 %63, label %64, label %65

64:                                               ; preds = %62
  call void @llvm.lifetime.end.p0(i64 56, ptr %10) #3
  br label %65

65:                                               ; preds = %64, %62
  call void @llvm.lifetime.end.p0(i64 16, ptr %8) #3
  br label %81

66:                                               ; preds = %34
  %67 = getelementptr inbounds nuw %"struct.std::pair.0", ptr %8, i32 0, i32 0
  %68 = load ptr, ptr %67, align 8, !tbaa !48
  %69 = getelementptr inbounds nuw %"class.google::protobuf::io::CodedInputStream", ptr %16, i32 0, i32 0
  %70 = load ptr, ptr %69, align 8, !tbaa !22
  %71 = load i32, ptr %7, align 4, !tbaa !18
  %72 = sext i32 %71 to i64
  call void @llvm.memcpy.p0.p0.i64(ptr align 1 %68, ptr align 1 %70, i64 %72, i1 false)
  %73 = load i32, ptr %7, align 4, !tbaa !18
  call void @_ZN6google8protobuf2io16CodedInputStream7AdvanceEi(ptr noundef nonnull align 8 dereferenceable(80) %16, i32 noundef %73)
  br label %74

74:                                               ; preds = %66, %24
  store i1 true, ptr %4, align 1
  call void @llvm.lifetime.end.p0(i64 16, ptr %8) #3
  br label %79

75:                                               ; preds = %20
  %76 = load ptr, ptr %6, align 8, !tbaa !44
  %77 = load i32, ptr %7, align 4, !tbaa !18
  %78 = call noundef zeroext i1 @_ZN6google8protobuf2io16CodedInputStream18ReadStringFallbackEPNSt7__cxx1112basic_stringIcSt11char_traitsIcESaIcEEEi(ptr noundef nonnull align 8 dereferenceable(80) %16, ptr noundef %76, i32 noundef %77)
  store i1 %78, ptr %4, align 1
  br label %79

79:                                               ; preds = %75, %74, %19
  %80 = load i1, ptr %4, align 1
  ret i1 %80

81:                                               ; preds = %65
  %82 = load ptr, ptr %13, align 8
  %83 = load i32, ptr %14, align 4
  %84 = insertvalue { ptr, i32 } poison, ptr %82, 0
  %85 = insertvalue { ptr, i32 } %84, i32 %83, 1
  resume { ptr, i32 } %85
}